target datalayout = "e-m:e-p270:32:32-p271:32:32-p272:64:64-i64:64-i128:128-f80:128-n8:16:32:64-S128"
target triple = "x86_64-pc-linux-gnu"

%struct.ident_t = type { i32, i32, i32, i32, ptr }
%"class.LightGBM::MultiValBinWrapper" = type { i8, i8, i8, %"class.std::unique_ptr", %"class.std::unique_ptr", %"class.std::vector", %"class.std::vector", %"class.std::vector", %"class.std::vector.2", i32, i32, i32, i32, i32, i32, i32, i32, ptr, i64, i64, i64, i64 }
%"class.std::unique_ptr" = type { %"struct.std::__uniq_ptr_data" }
%"struct.std::__uniq_ptr_data" = type { %"class.std::__uniq_ptr_impl" }
%"class.std::__uniq_ptr_impl" = type { %"class.std::tuple" }
%"class.std::tuple" = type { %"struct.std::_Tuple_impl" }
%"struct.std::_Tuple_impl" = type { %"struct.std::_Head_base.1" }
%"struct.std::_Head_base.1" = type { ptr }
%"class.std::vector" = type { %"struct.std::_Vector_base" }
%"struct.std::_Vector_base" = type { %"struct.std::_Vector_base<unsigned int, std::allocator<unsigned int>>::_Vector_impl" }
%"struct.std::_Vector_base<unsigned int, std::allocator<unsigned int>>::_Vector_impl" = type { %"struct.std::_Vector_base<unsigned int, std::allocator<unsigned int>>::_Vector_impl_data" }
%"struct.std::_Vector_base<unsigned int, std::allocator<unsigned int>>::_Vector_impl_data" = type { ptr, ptr, ptr }
%"class.std::vector.2" = type { %"struct.std::_Vector_base.3" }
%"struct.std::_Vector_base.3" = type { %"struct.std::_Vector_base<int, std::allocator<int>>::_Vector_impl" }
%"struct.std::_Vector_base<int, std::allocator<int>>::_Vector_impl" = type { %"struct.std::_Vector_base<int, std::allocator<int>>::_Vector_impl_data" }
%"struct.std::_Vector_base<int, std::allocator<int>>::_Vector_impl_data" = type { ptr, ptr, ptr }

@1 = private unnamed_addr constant %struct.ident_t { i32 0, i32 514, i32 0, i32 22, ptr @0 }, align 8

; Function Attrs: mustprogress nounwind uwtable
define linkonce_odr noundef ptr @_ZNSt11__copy_moveILb0ELb1ESt26random_access_iterator_tagE8__copy_mIiEEPT_PKS3_S6_S4_(ptr noundef %0, ptr noundef %1, ptr noundef %2) #4 comdat align 2 {
  %4 = alloca ptr, align 8
  %5 = alloca ptr, align 8
  %6 = alloca ptr, align 8
  %7 = alloca i64, align 8
  store ptr %0, ptr %4, align 8, !tbaa !41
  store ptr %1, ptr %5, align 8, !tbaa !41
  store ptr %2, ptr %6, align 8, !tbaa !41
  call void @llvm.lifetime.start.p0(i64 8, ptr %7) #3
  %8 = load ptr, ptr %5, align 8, !tbaa !41
  %9 = load ptr, ptr %4, align 8, !tbaa !41
  %10 = ptrtoint ptr %8 to i64
  %11 = ptrtoint ptr %9 to i64
  %12 = sub i64 %10, %11
  %13 = sdiv exact i64 %12, 4
  store i64 %13, ptr %7, align 8, !tbaa !51
  %14 = load i64, ptr %7, align 8, !tbaa !51
  %15 = icmp ne i64 %14, 0
  br i1 %15, label %16, label %21

16:                                               ; preds = %3
  %17 = load ptr, ptr %6, align 8, !tbaa !41
  %18 = load ptr, ptr %4, align 8, !tbaa !41
  %19 = load i64, ptr %7, align 8, !tbaa !51
  %20 = mul i64 4, %19
  call void @llvm.memmove.p0.p0.i64(ptr align 4 %17, ptr align 4 %18, i64 %20, i1 false)
  br label %21

21:                                               ; preds = %16, %3
  %22 = load ptr, ptr %6, align 8, !tbaa !41
  %23 = load i64, ptr %7, align 8, !tbaa !51
  %24 = getelementptr inbounds i32, ptr %22, i64 %23
  call void @llvm.lifetime.end.p0(i64 8, ptr %7) #3
  ret ptr %24
}

; Function Attrs: inlinehint mustprogress uwtable
define linkonce_odr noundef ptr @_ZSt14__copy_move_a2ILb0EPKiPiET1_T0_S4_S3_(ptr noundef %0, ptr noundef %1, ptr noundef %2) #7 comdat {
  %4 = alloca ptr, align 8
  %5 = alloca ptr, align 8
  %6 = alloca ptr, align 8
  store ptr %0, ptr %4, align 8, !tbaa !41
  store ptr %1, ptr %5, align 8, !tbaa !41
  store ptr %2, ptr %6, align 8, !tbaa !41
  %7 = load ptr, ptr %4, align 8, !tbaa !41
  %8 = load ptr, ptr %5, align 8, !tbaa !41
  %9 = load ptr, ptr %6, align 8, !tbaa !41
  %10 = call noundef ptr @_ZNSt11__copy_moveILb0ELb1ESt26random_access_iterator_tagE8__copy_mIiEEPT_PKS3_S6_S4_(ptr noundef %7, ptr noundef %8, ptr noundef %9)
  ret ptr %10
}

; Function Attrs: inlinehint mustprogress nounwind uwtable
define linkonce_odr noundef ptr @_ZSt12__niter_wrapIPiET_RKS1_S1_(ptr noundef nonnull align 8 dereferenceable(8) %0, ptr noundef %1) #9 comdat {
  %3 = alloca ptr, align 8
  %4 = alloca ptr, align 8
  store ptr %0, ptr %3, align 8, !tbaa !54
  store ptr %1, ptr %4, align 8, !tbaa !41
  %5 = load ptr, ptr %4, align 8, !tbaa !41
  ret ptr %5
}

; Function Attrs: inlinehint mustprogress uwtable
define linkonce_odr noundef ptr @_ZSt14__copy_move_a1ILb0EPKiPiET1_T0_S4_S3_(ptr noundef %0, ptr noundef %1, ptr noundef %2) #7 comdat {
  %4 = alloca ptr, align 8
  %5 = alloca ptr, align 8
  %6 = alloca ptr, align 8
  store ptr %0, ptr %4, align 8, !tbaa !41
  store ptr %1, ptr %5, align 8, !tbaa !41
  store ptr %2, ptr %6, align 8, !tbaa !41
  %7 = load ptr, ptr %4, align 8, !tbaa !41
  %8 = load ptr, ptr %5, align 8, !tbaa !41
  %9 = load ptr, ptr %6, align 8, !tbaa !41
  %10 = call noundef ptr @_ZSt14__copy_move_a2ILb0EPKiPiET1_T0_S4_S3_(ptr noundef %7, ptr noundef %8, ptr noundef %9)
  ret ptr %10
}

; Function Attrs: inlinehint mustprogress nounwind uwtable
define linkonce_odr noundef ptr @_ZSt12__niter_baseIPiET_S1_(ptr noundef %0) #9 comdat {
  %2 = alloca ptr, align 8
  store ptr %0, ptr %2, align 8, !tbaa !41
  %3 = load ptr, ptr %2, align 8, !tbaa !41
  ret ptr %3
}

; Function Attrs: inlinehint mustprogress nounwind uwtable
define linkonce_odr noundef ptr @_ZSt12__niter_baseIPKiET_S2_(ptr noundef %0) #9 comdat {
  %2 = alloca ptr, align 8
  store ptr %0, ptr %2, align 8, !tbaa !41
  %3 = load ptr, ptr %2, align 8, !tbaa !41
  ret ptr %3
}

; Function Attrs: inlinehint mustprogress uwtable
define linkonce_odr noundef ptr @_ZSt13__copy_move_aILb0EPKiPiET1_T0_S4_S3_(ptr noundef %0, ptr noundef %1, ptr noundef %2) #7 comdat {
  %4 = alloca ptr, align 8
  %5 = alloca ptr, align 8
  %6 = alloca ptr, align 8
  store ptr %0, ptr %4, align 8, !tbaa !41
  store ptr %1, ptr %5, align 8, !tbaa !41
  store ptr %2, ptr %6, align 8, !tbaa !41
  %7 = load ptr, ptr %4, align 8, !tbaa !41
  %8 = call noundef ptr @_ZSt12__niter_baseIPKiET_S2_(ptr noundef %7) #3
  %9 = load ptr, ptr %5, align 8, !tbaa !41
  %10 = call noundef ptr @_ZSt12__niter_baseIPKiET_S2_(ptr noundef %9) #3
  %11 = load ptr, ptr %6, align 8, !tbaa !41
  %12 = call noundef ptr @_ZSt12__niter_baseIPiET_S1_(ptr noundef %11) #3
  %13 = call noundef ptr @_ZSt14__copy_move_a1ILb0EPKiPiET1_T0_S4_S3_(ptr noundef %8, ptr noundef %10, ptr noundef %12)
  %14 = call noundef ptr @_ZSt12__niter_wrapIPiET_RKS1_S1_(ptr noundef nonnull align 8 dereferenceable(8) %6, ptr noundef %13)
  ret ptr %14
}

; Function Attrs: inlinehint mustprogress nounwind uwtable
define linkonce_odr noundef ptr @_ZSt12__miter_baseIPKiET_S2_(ptr noundef %0) #9 comdat {
  %2 = alloca ptr, align 8
  store ptr %0, ptr %2, align 8, !tbaa !41
  %3 = load ptr, ptr %2, align 8, !tbaa !41
  ret ptr %3
}

; Function Attrs: inlinehint mustprogress uwtable
define linkonce_odr noundef ptr @_ZSt4copyIPKiPiET0_T_S4_S3_(ptr noundef %0, ptr noundef %1, ptr noundef %2) #7 comdat {
  %4 = alloca ptr, align 8
  %5 = alloca ptr, align 8
  %6 = alloca ptr, align 8
  store ptr %0, ptr %4, align 8, !tbaa !41
  store ptr %1, ptr %5, align 8, !tbaa !41
  store ptr %2, ptr %6, align 8, !tbaa !41
  %7 = load ptr, ptr %4, align 8, !tbaa !41
  %8 = call noundef ptr @_ZSt12__miter_baseIPKiET_S2_(ptr noundef %7)
  %9 = load ptr, ptr %5, align 8, !tbaa !41
  %10 = call noundef ptr @_ZSt12__miter_baseIPKiET_S2_(ptr noundef %9)
  %11 = load ptr, ptr %6, align 8, !tbaa !41
  %12 = call noundef ptr @_ZSt13__copy_move_aILb0EPKiPiET1_T0_S4_S3_(ptr noundef %8, ptr noundef %10, ptr noundef %11)
  ret ptr %12
}

; Function Attrs: inlinehint mustprogress uwtable
define linkonce_odr noundef ptr @_ZSt8__copy_nIPKijPiET1_T_T0_S3_St26random_access_iterator_tag(ptr noundef %0, i32 noundef %1, ptr noundef %2) #7 comdat {
  %4 = alloca ptr, align 8
  %5 = alloca i32, align 4
  %6 = alloca ptr, align 8
  store ptr %0, ptr %4, align 8, !tbaa !41
  store i32 %1, ptr %5, align 4, !tbaa !45
  store ptr %2, ptr %6, align 8, !tbaa !41
  %7 = load ptr, ptr %4, align 8, !tbaa !41
  %8 = load ptr, ptr %4, align 8, !tbaa !41
  %9 = load i32, ptr %5, align 4, !tbaa !45
  %10 = zext i32 %9 to i64
  %11 = getelementptr inbounds nuw i32, ptr %8, i64 %10
  %12 = load ptr, ptr %6, align 8, !tbaa !41
  %13 = call noundef ptr @_ZSt4copyIPKiPiET0_T_S4_S3_(ptr noundef %7, ptr noundef %11, ptr noundef %12)
  ret ptr %13
}

; Function Attrs: inlinehint mustprogress nounwind uwtable
define linkonce_odr void @_ZSt19__iterator_categoryIPKiENSt15iterator_traitsIT_E17iterator_categoryERKS3_(ptr noundef nonnull align 8 dereferenceable(8) %0) #9 comdat {
  %2 = alloca ptr, align 8
  store ptr %0, ptr %2, align 8, !tbaa !54
  ret void
}

; Function Attrs: inlinehint mustprogress nounwind uwtable
define linkonce_odr noundef i32 @_ZSt17__size_to_integerj(i32 noundef %0) #9 comdat {
  %2 = alloca i32, align 4
  store i32 %0, ptr %2, align 4, !tbaa !45
  %3 = load i32, ptr %2, align 4, !tbaa !45
  ret i32 %3
}

; Function Attrs: noinline noreturn nounwind uwtable
define linkonce_odr hidden void @__clang_call_terminate(ptr noundef %0) #8 comdat {
  %2 = call ptr @__cxa_begin_catch(ptr %0) #3
  call void @_ZSt9terminatev() #21
  unreachable
}

; Function Attrs: inlinehint mustprogress uwtable
define linkonce_odr noundef ptr @_ZSt6copy_nIPKijPiET1_T_T0_S3_(ptr noundef %0, i32 noundef %1, ptr noundef %2) #7 comdat {
  %4 = alloca ptr, align 8
  %5 = alloca ptr, align 8
  %6 = alloca i32, align 4
  %7 = alloca ptr, align 8
  %8 = alloca i32, align 4
  %9 = alloca i32, align 4
  store ptr %0, ptr %5, align 8, !tbaa !41
  store i32 %1, ptr %6, align 4, !tbaa !45
  store ptr %2, ptr %7, align 8, !tbaa !41
  call void @llvm.lifetime.start.p0(i64 4, ptr %8) #3
  %10 = load i32, ptr %6, align 4, !tbaa !45
  %11 = call noundef i32 @_ZSt17__size_to_integerj(i32 noundef %10)
  store i32 %11, ptr %8, align 4, !tbaa !45
  %12 = load i32, ptr %8, align 4, !tbaa !45
  %13 = icmp ule i32 %12, 0
  br i1 %13, label %14, label %16

14:                                               ; preds = %3
  %15 = load ptr, ptr %7, align 8, !tbaa !41
  store ptr %15, ptr %4, align 8
  store i32 1, ptr %9, align 4
  br label %21

16:                                               ; preds = %3
  %17 = load ptr, ptr %5, align 8, !tbaa !41
  %18 = load i32, ptr %8, align 4, !tbaa !45
  %19 = load ptr, ptr %7, align 8, !tbaa !41
  call void @_ZSt19__iterator_categoryIPKiENSt15iterator_traitsIT_E17iterator_categoryERKS3_(ptr noundef nonnull align 8 dereferenceable(8) %5)
  %20 = call noundef ptr @_ZSt8__copy_nIPKijPiET1_T_T0_S3_St26random_access_iterator_tag(ptr noundef %17, i32 noundef %18, ptr noundef %19)
  store ptr %20, ptr %4, align 8
  store i32 1, ptr %9, align 4
  br label %21

21:                                               ; preds = %16, %14
  call void @llvm.lifetime.end.p0(i64 4, ptr %8) #3
  %22 = load ptr, ptr %4, align 8
  ret ptr %22
}

; Function Attrs: mustprogress nounwind uwtable
define linkonce_odr noundef nonnull align 4 dereferenceable(4) ptr @_ZNSt6vectorIjSaIjEEixEm(ptr noundef nonnull align 8 dereferenceable(24) %0, i64 noundef %1) #4 comdat align 2 {
  %3 = alloca ptr, align 8
  %4 = alloca i64, align 8
  store ptr %0, ptr %3, align 8, !tbaa !47
  store i64 %1, ptr %4, align 8, !tbaa !51
  %5 = load ptr, ptr %3, align 8
  %6 = getelementptr inbounds nuw %"struct.std::_Vector_base", ptr %5, i32 0, i32 0
  %7 = getelementptr inbounds nuw %"struct.std::_Vector_base<unsigned int, std::allocator<unsigned int>>::_Vector_impl_data", ptr %6, i32 0, i32 0
  %8 = load ptr, ptr %7, align 8, !tbaa !50
  %9 = load i64, ptr %4, align 8, !tbaa !51
  %10 = getelementptr inbounds nuw i32, ptr %8, i64 %9
  ret ptr %10
}

; Function Attrs: mustprogress nounwind uwtable
define linkonce_odr noundef i64 @_ZNKSt6vectorIjSaIjEE4sizeEv(ptr noundef nonnull align 8 dereferenceable(24) %0) #4 comdat align 2 {
  %2 = alloca ptr, align 8
  store ptr %0, ptr %2, align 8, !tbaa !47
  %3 = load ptr, ptr %2, align 8
  %4 = getelementptr inbounds nuw %"struct.std::_Vector_base", ptr %3, i32 0, i32 0
  %5 = getelementptr inbounds nuw %"struct.std::_Vector_base<unsigned int, std::allocator<unsigned int>>::_Vector_impl_data", ptr %4, i32 0, i32 1
  %6 = load ptr, ptr %5, align 8, !tbaa !49
  %7 = getelementptr inbounds nuw %"struct.std::_Vector_base", ptr %3, i32 0, i32 0
  %8 = getelementptr inbounds nuw %"struct.std::_Vector_base<unsigned int, std::allocator<unsigned int>>::_Vector_impl_data", ptr %7, i32 0, i32 0
  %9 = load ptr, ptr %8, align 8, !tbaa !50
  %10 = ptrtoint ptr %6 to i64
  %11 = ptrtoint ptr %9 to i64
  %12 = sub i64 %10, %11
  %13 = sdiv exact i64 %12, 4
  ret i64 %13
}

; Function Attrs: alwaysinline norecurse nounwind uwtable
define internal void @_ZN8LightGBM18MultiValBinWrapper8HistMoveILb1ELi16ELi16EEEvRKSt6vectorIdNS_6Common18AlignmentAllocatorIdLm32EEEE.omp_outlined(ptr noalias noundef %0, ptr noalias noundef %1, ptr noundef %2, ptr noundef nonnull align 8 dereferenceable(8) %3) #6 personality ptr @__gxx_personality_v0 {
  %5 = alloca ptr, align 8
  %6 = alloca ptr, align 8
  %7 = alloca ptr, align 8
  %8 = alloca ptr, align 8
  %9 = alloca i32, align 4
  %10 = alloca i32, align 4
  %11 = alloca i32, align 4
  %12 = alloca i32, align 4
  %13 = alloca i32, align 4
  %14 = alloca i32, align 4
  %15 = alloca i32, align 4
  %16 = alloca i32, align 4
  %17 = alloca i32, align 4
  store ptr %0, ptr %5, align 8, !tbaa !41
  store ptr %1, ptr %6, align 8, !tbaa !41
  store ptr %2, ptr %7, align 8, !tbaa !4
  store ptr %3, ptr %8, align 8, !tbaa !54
  %18 = load ptr, ptr %7, align 8, !tbaa !4
  %19 = load ptr, ptr %8, align 8, !tbaa !54
  call void @llvm.lifetime.start.p0(i64 4, ptr %9) #3
  call void @llvm.lifetime.start.p0(i64 4, ptr %10) #3
  %20 = getelementptr inbounds nuw %"class.LightGBM::MultiValBinWrapper", ptr %18, i32 0, i32 5
  %21 = call noundef i64 @_ZNKSt6vectorIjSaIjEE4sizeEv(ptr noundef nonnull align 8 dereferenceable(24) %20) #3
  %22 = trunc i64 %21 to i32
  store i32 %22, ptr %10, align 4, !tbaa !45
  call void @llvm.lifetime.start.p0(i64 4, ptr %11) #3
  %23 = load i32, ptr %10, align 4, !tbaa !45
  %24 = sub nsw i32 %23, 0
  %25 = sdiv i32 %24, 1
  %26 = sub nsw i32 %25, 1
  store i32 %26, ptr %11, align 4, !tbaa !45
  call void @llvm.lifetime.start.p0(i64 4, ptr %12) #3
  store i32 0, ptr %12, align 4, !tbaa !45
  call void @llvm.lifetime.end.p0(i64 4, ptr %12) #3
  %27 = load i32, ptr %10, align 4, !tbaa !45
  %28 = icmp slt i32 0, %27
  br i1 %28, label %29, label %87

29:                                               ; preds = %4
  call void @llvm.lifetime.start.p0(i64 4, ptr %13) #3
  store i32 0, ptr %13, align 4, !tbaa !45
  call void @llvm.lifetime.start.p0(i64 4, ptr %14) #3
  %30 = load i32, ptr %11, align 4, !tbaa !45
  store i32 %30, ptr %14, align 4, !tbaa !45
  call void @llvm.lifetime.start.p0(i64 4, ptr %15) #3
  store i32 1, ptr %15, align 4, !tbaa !45
  call void @llvm.lifetime.start.p0(i64 4, ptr %16) #3
  store i32 0, ptr %16, align 4, !tbaa !45
  call void @llvm.lifetime.start.p0(i64 4, ptr %17) #3
  %31 = load ptr, ptr %5, align 8
  %32 = load i32, ptr %31, align 4, !tbaa !45
  call void @__kmpc_for_static_init_4(ptr @1, i32 %32, i32 34, ptr %16, ptr %13, ptr %14, ptr %15, i32 1, i32 1)
  %33 = load i32, ptr %14, align 4, !tbaa !45
  %34 = load i32, ptr %11, align 4, !tbaa !45
  %35 = icmp sgt i32 %33, %34
  br i1 %35, label %36, label %38

36:                                               ; preds = %29
  %37 = load i32, ptr %11, align 4, !tbaa !45
  br label %40

38:                                               ; preds = %29
  %39 = load i32, ptr %14, align 4, !tbaa !45
  br label %40

40:                                               ; preds = %38, %36
  %41 = phi i32 [ %37, %36 ], [ %39, %38 ]
  store i32 %41, ptr %14, align 4, !tbaa !45
  %42 = load i32, ptr %13, align 4, !tbaa !45
  store i32 %42, ptr %9, align 4, !tbaa !45
  br label %43

43:                                               ; preds = %80, %40
  %44 = load i32, ptr %9, align 4, !tbaa !45
  %45 = load i32, ptr %14, align 4, !tbaa !45
  %46 = icmp sle i32 %44, %45
  br i1 %46, label %48, label %47

47:                                               ; preds = %43
  br label %83

48:                                               ; preds = %43
  %49 = load i32, ptr %9, align 4, !tbaa !45
  %50 = mul nsw i32 %49, 1
  %51 = add nsw i32 0, %50
  store i32 %51, ptr %17, align 4, !tbaa !45
  %52 = load ptr, ptr %19, align 8, !tbaa !41
  %53 = getelementptr inbounds nuw %"class.LightGBM::MultiValBinWrapper", ptr %18, i32 0, i32 5
  %54 = load i32, ptr %17, align 4, !tbaa !45
  %55 = sext i32 %54 to i64
  %56 = call noundef nonnull align 4 dereferenceable(4) ptr @_ZNSt6vectorIjSaIjEEixEm(ptr noundef nonnull align 8 dereferenceable(24) %53, i64 noundef %55) #3
  %57 = load i32, ptr %56, align 4, !tbaa !45
  %58 = udiv i32 %57, 2
  %59 = zext i32 %58 to i64
  %60 = getelementptr inbounds nuw i32, ptr %52, i64 %59
  %61 = getelementptr inbounds nuw %"class.LightGBM::MultiValBinWrapper", ptr %18, i32 0, i32 7
  %62 = load i32, ptr %17, align 4, !tbaa !45
  %63 = sext i32 %62 to i64
  %64 = call noundef nonnull align 4 dereferenceable(4) ptr @_ZNSt6vectorIjSaIjEEixEm(ptr noundef nonnull align 8 dereferenceable(24) %61, i64 noundef %63) #3
  %65 = load i32, ptr %64, align 4, !tbaa !45
  %66 = udiv i32 %65, 2
  %67 = getelementptr inbounds nuw %"class.LightGBM::MultiValBinWrapper", ptr %18, i32 0, i32 17
  %68 = load ptr, ptr %67, align 8, !tbaa !46
  %69 = getelementptr inbounds nuw %"class.LightGBM::MultiValBinWrapper", ptr %18, i32 0, i32 6
  %70 = load i32, ptr %17, align 4, !tbaa !45
  %71 = sext i32 %70 to i64
  %72 = call noundef nonnull align 4 dereferenceable(4) ptr @_ZNSt6vectorIjSaIjEEixEm(ptr noundef nonnull align 8 dereferenceable(24) %69, i64 noundef %71) #3
  %73 = load i32, ptr %72, align 4, !tbaa !45
  %74 = udiv i32 %73, 2
  %75 = zext i32 %74 to i64
  %76 = getelementptr inbounds nuw i32, ptr %68, i64 %75
  %77 = invoke noundef ptr @_ZSt6copy_nIPKijPiET1_T_T0_S3_(ptr noundef %60, i32 noundef %66, ptr noundef %76)
          to label %78 unwind label %88

78:                                               ; preds = %48
  br label %79

79:                                               ; preds = %78
  br label %80

80:                                               ; preds = %79
  %81 = load i32, ptr %9, align 4, !tbaa !45
  %82 = add nsw i32 %81, 1
  store i32 %82, ptr %9, align 4, !tbaa !45
  br label %43

83:                                               ; preds = %47
  br label %84

84:                                               ; preds = %83
  %85 = load ptr, ptr %5, align 8
  %86 = load i32, ptr %85, align 4, !tbaa !45
  call void @__kmpc_for_static_fini(ptr @1, i32 %86)
  call void @llvm.lifetime.end.p0(i64 4, ptr %17) #3
  call void @llvm.lifetime.end.p0(i64 4, ptr %16) #3
  call void @llvm.lifetime.end.p0(i64 4, ptr %15) #3
  call void @llvm.lifetime.end.p0(i64 4, ptr %14) #3
  call void @llvm.lifetime.end.p0(i64 4, ptr %13) #3
  br label %87

87:                                               ; preds = %84, %4
  call void @llvm.lifetime.end.p0(i64 4, ptr %11) #3
  call void @llvm.lifetime.end.p0(i64 4, ptr %10) #3
  call void @llvm.lifetime.end.p0(i64 4, ptr %9) #3
  ret void

88:                                               ; preds = %48
  %89 = landingpad { ptr, i32 }
          catch ptr null
  %90 = extractvalue { ptr, i32 } %89, 0
  call void @__clang_call_terminate(ptr %90) #21
  unreachable
}